target datalayout = "e-m:e-p270:32:32-p271:32:32-p272:64:64-i64:64-i128:128-f80:128-n8:16:32:64-S128"
target triple = "x86_64-pc-linux-gnu"

%"class.zmq::null_mechanism_t" = type <{ %"class.zmq::zap_client_t.base", i8, i8, i8, i8, i8, i8, [2 x i8], %"class.zmq::mechanism_base_t" }>
%"class.zmq::zap_client_t.base" = type { ptr, %"class.std::__cxx11::basic_string", %"class.std::__cxx11::basic_string" }
%"class.std::__cxx11::basic_string" = type { %"struct.std::__cxx11::basic_string<char>::_Alloc_hider", i64, %union.anon }
%"struct.std::__cxx11::basic_string<char>::_Alloc_hider" = type { ptr }
%union.anon = type { i64, [8 x i8] }
%"class.zmq::mechanism_base_t" = type { %"class.zmq::mechanism_t", ptr }
%"class.zmq::mechanism_t" = type { ptr, %"struct.zmq::options_t", %"class.std::map", %"class.std::map", %"struct.zmq::blob_t", %"struct.zmq::blob_t" }
%"struct.zmq::options_t" = type { i32, i32, i64, i8, [256 x i8], i32, i32, i32, i32, i32, i32, i32, i32, i8, %"struct.zmq::atomic_value_t", i32, i32, i32, i32, i32, i32, i64, i32, i32, i8, i32, i8, i8, i8, i8, i8, %"class.std::__cxx11::basic_string", %"class.std::__cxx11::basic_string", %"class.std::__cxx11::basic_string", i32, i32, i32, i32, %"class.std::vector", %"class.std::set", %"class.std::set", %"class.std::set.6", i32, i32, %"class.std::__cxx11::basic_string", %"class.std::__cxx11::basic_string", %"class.std::__cxx11::basic_string", [32 x i8], [32 x i8], [32 x i8], %"class.std::__cxx11::basic_string", %"class.std::__cxx11::basic_string", i32, i32, i8, i32, i8, i32, i8, i16, i32, i32, i32, %"class.std::__cxx11::basic_string", i8, i8, i8, i32, i32, i8, i32, %"class.std::map", i32, %"class.std::__cxx11::basic_string", %"class.std::__cxx11::basic_string", %"class.std::__cxx11::basic_string", %"class.std::__cxx11::basic_string", i8, %"class.std::vector.17", i8, %"class.std::vector.17", i8, %"class.std::vector.17", i8, i32, i8, i32, i32, i32, i32, i32, i8, i32 }
%"struct.zmq::atomic_value_t" = type { %"struct.std::atomic" }
%"struct.std::atomic" = type { %"struct.std::__atomic_base" }
%"struct.std::__atomic_base" = type { i32 }
%"class.std::vector" = type { %"struct.std::_Vector_base" }
%"struct.std::_Vector_base" = type { %"struct.std::_Vector_base<zmq::tcp_address_mask_t, std::allocator<zmq::tcp_address_mask_t>>::_Vector_impl" }
%"struct.std::_Vector_base<zmq::tcp_address_mask_t, std::allocator<zmq::tcp_address_mask_t>>::_Vector_impl" = type { %"struct.std::_Vector_base<zmq::tcp_address_mask_t, std::allocator<zmq::tcp_address_mask_t>>::_Vector_impl_data" }
%"struct.std::_Vector_base<zmq::tcp_address_mask_t, std::allocator<zmq::tcp_address_mask_t>>::_Vector_impl_data" = type { ptr, ptr, ptr }
%"class.std::set" = type { %"class.std::_Rb_tree" }
%"class.std::_Rb_tree" = type { %"struct.std::_Rb_tree<unsigned int, unsigned int, std::_Identity<unsigned int>, std::less<unsigned int>>::_Rb_tree_impl" }
%"struct.std::_Rb_tree<unsigned int, unsigned int, std::_Identity<unsigned int>, std::less<unsigned int>>::_Rb_tree_impl" = type { [8 x i8], %"struct.std::_Rb_tree_header" }
%"struct.std::_Rb_tree_header" = type { %"struct.std::_Rb_tree_node_base", i64 }
%"struct.std::_Rb_tree_node_base" = type { i32, ptr, ptr, ptr }
%"class.std::set.6" = type { %"class.std::_Rb_tree.7" }
%"class.std::_Rb_tree.7" = type { %"struct.std::_Rb_tree<int, int, std::_Identity<int>, std::less<int>>::_Rb_tree_impl" }
%"struct.std::_Rb_tree<int, int, std::_Identity<int>, std::less<int>>::_Rb_tree_impl" = type { [8 x i8], %"struct.std::_Rb_tree_header" }
%"class.std::vector.17" = type { %"struct.std::_Vector_base.18" }
%"struct.std::_Vector_base.18" = type { %"struct.std::_Vector_base<unsigned char, std::allocator<unsigned char>>::_Vector_impl" }
%"struct.std::_Vector_base<unsigned char, std::allocator<unsigned char>>::_Vector_impl" = type { %"struct.std::_Vector_base<unsigned char, std::allocator<unsigned char>>::_Vector_impl_data" }
%"struct.std::_Vector_base<unsigned char, std::allocator<unsigned char>>::_Vector_impl_data" = type { ptr, ptr, ptr }
%"class.std::map" = type { %"class.std::_Rb_tree.12" }
%"class.std::_Rb_tree.12" = type { %"struct.std::_Rb_tree<std::__cxx11::basic_string<char>, std::pair<const std::__cxx11::basic_string<char>, std::__cxx11::basic_string<char>>, std::_Select1st<std::pair<const std::__cxx11::basic_string<char>, std::__cxx11::basic_string<char>>>, std::less<std::__cxx11::basic_string<char>>>::_Rb_tree_impl" }
%"struct.std::_Rb_tree<std::__cxx11::basic_string<char>, std::pair<const std::__cxx11::basic_string<char>, std::__cxx11::basic_string<char>>, std::_Select1st<std::pair<const std::__cxx11::basic_string<char>, std::__cxx11::basic_string<char>>>, std::less<std::__cxx11::basic_string<char>>>::_Rb_tree_impl" = type { [8 x i8], %"struct.std::_Rb_tree_header" }
%"struct.zmq::blob_t" = type <{ ptr, i64, i8, [7 x i8] }>

@stderr = external global ptr, align 8
@.str.4 = private unnamed_addr constant [114 x i8] c"generated/home/dtcxzyw/WorkSpace/Projects/compilers/llvm-opt-benchmark/bench/libzmq/libzmq/src/null_mechanism.cpp\00", align 1
@_ZL18error_command_name = internal constant [7 x i8] c"\05ERROR\00", align 1
@_ZL18ready_command_name = internal constant [7 x i8] c"\05READY\00", align 1
@.str.5 = private unnamed_addr constant [12 x i8] c"%s (%s:%d)\0A\00", align 1

; Function Attrs: mustprogress uwtable
define noundef i32 @_ZN3zmq16null_mechanism_t21process_ready_commandEPKhm(ptr noundef nonnull align 8 dereferenceable(1576) %0, ptr noundef %1, i64 noundef %2) #0 align 2 {
  %4 = alloca ptr, align 8
  %5 = alloca ptr, align 8
  %6 = alloca i64, align 8
  store ptr %0, ptr %4, align 8, !tbaa !3
  store ptr %1, ptr %5, align 8, !tbaa !80
  store i64 %2, ptr %6, align 8, !tbaa !77
  %7 = load ptr, ptr %4, align 8
  %8 = getelementptr inbounds nuw %"class.zmq::null_mechanism_t", ptr %7, i32 0, i32 3
  store i8 1, ptr %8, align 2, !tbaa !27
  %9 = getelementptr inbounds i8, ptr %7, i64 80
  %10 = load ptr, ptr %5, align 8, !tbaa !80
  %11 = getelementptr inbounds nuw i8, ptr %10, i64 6
  %12 = load i64, ptr %6, align 8, !tbaa !77
  %13 = sub i64 %12, 6
  %14 = call noundef i32 @_ZN3zmq11mechanism_t14parse_metadataEPKhmb(ptr noundef nonnull align 8 dereferenceable(1488) %9, ptr noundef %11, i64 noundef %13, i1 noundef zeroext false)
  ret i32 %14
}

; Function Attrs: mustprogress uwtable
define noundef i32 @_ZN3zmq16null_mechanism_t25process_handshake_commandEPNS_5msg_tE(ptr noundef nonnull align 8 dereferenceable(1576) %0, ptr noundef %1) unnamed_addr #0 align 2 {
  %3 = alloca i32, align 4
  %4 = alloca ptr, align 8
  %5 = alloca ptr, align 8
  %6 = alloca ptr, align 8
  %7 = alloca i64, align 8
  %8 = alloca i32, align 4
  %9 = alloca ptr, align 8
  %10 = alloca ptr, align 8
  store ptr %0, ptr %4, align 8, !tbaa !3
  store ptr %1, ptr %5, align 8, !tbaa !33
  %11 = load ptr, ptr %4, align 8
  %12 = getelementptr inbounds nuw %"class.zmq::null_mechanism_t", ptr %11, i32 0, i32 3
  %13 = load i8, ptr %12, align 2, !tbaa !27, !range !35, !noundef !36
  %14 = trunc i8 %13 to i1
  br i1 %14, label %19, label %15

15:                                               ; preds = %2
  %16 = getelementptr inbounds nuw %"class.zmq::null_mechanism_t", ptr %11, i32 0, i32 4
  %17 = load i8, ptr %16, align 1, !tbaa !28, !range !35, !noundef !36
  %18 = trunc i8 %17 to i1
  br i1 %18, label %19, label %29

19:                                               ; preds = %15, %2
  %20 = getelementptr inbounds i8, ptr %11, i64 80
  %21 = getelementptr inbounds nuw %"class.zmq::mechanism_base_t", ptr %20, i32 0, i32 1
  %22 = load ptr, ptr %21, align 8, !tbaa !39
  %23 = call noundef ptr @_ZNK3zmq14session_base_t10get_socketEv(ptr noundef nonnull align 8 dereferenceable(1624) %22)
  %24 = getelementptr inbounds i8, ptr %11, i64 80
  %25 = getelementptr inbounds nuw %"class.zmq::mechanism_base_t", ptr %24, i32 0, i32 1
  %26 = load ptr, ptr %25, align 8, !tbaa !39
  %27 = call noundef nonnull align 8 dereferenceable(68) ptr @_ZNK3zmq14session_base_t12get_endpointEv(ptr noundef nonnull align 8 dereferenceable(1624) %26)
  call void @_ZN3zmq13socket_base_t31event_handshake_failed_protocolERKNS_19endpoint_uri_pair_tEi(ptr noundef nonnull align 8 dereferenceable(1825) %23, ptr noundef nonnull align 8 dereferenceable(68) %27, i32 noundef 268435457)
  %28 = call ptr @__errno_location() #19
  store i32 71, ptr %28, align 4, !tbaa !37
  store i32 -1, ptr %3, align 4
  br label %116

29:                                               ; preds = %15
  call void @llvm.lifetime.start.p0(i64 8, ptr %6) #17
  %30 = load ptr, ptr %5, align 8, !tbaa !33
  %31 = call noundef ptr @_ZN3zmq5msg_t4dataEv(ptr noundef nonnull align 8 dereferenceable(64) %30)
  store ptr %31, ptr %6, align 8, !tbaa !80
  call void @llvm.lifetime.start.p0(i64 8, ptr %7) #17
  %32 = load ptr, ptr %5, align 8, !tbaa !33
  %33 = call noundef i64 @_ZNK3zmq5msg_t4sizeEv(ptr noundef nonnull align 8 dereferenceable(64) %32)
  store i64 %33, ptr %7, align 8, !tbaa !77
  call void @llvm.lifetime.start.p0(i64 4, ptr %8) #17
  store i32 0, ptr %8, align 4, !tbaa !37
  %34 = load i64, ptr %7, align 8, !tbaa !77
  %35 = icmp uge i64 %34, 6
  br i1 %35, label %36, label %44

36:                                               ; preds = %29
  %37 = load ptr, ptr %6, align 8, !tbaa !80
  %38 = call i32 @memcmp(ptr noundef %37, ptr noundef @_ZL18ready_command_name, i64 noundef 6) #20
  %39 = icmp ne i32 %38, 0
  br i1 %39, label %44, label %40

40:                                               ; preds = %36
  %41 = load ptr, ptr %6, align 8, !tbaa !80
  %42 = load i64, ptr %7, align 8, !tbaa !77
  %43 = call noundef i32 @_ZN3zmq16null_mechanism_t21process_ready_commandEPKhm(ptr noundef nonnull align 8 dereferenceable(1576) %11, ptr noundef %41, i64 noundef %42)
  store i32 %43, ptr %8, align 4, !tbaa !37
  br label %66

44:                                               ; preds = %36, %29
  %45 = load i64, ptr %7, align 8, !tbaa !77
  %46 = icmp uge i64 %45, 6
  br i1 %46, label %47, label %55

47:                                               ; preds = %44
  %48 = load ptr, ptr %6, align 8, !tbaa !80
  %49 = call i32 @memcmp(ptr noundef %48, ptr noundef @_ZL18error_command_name, i64 noundef 6) #20
  %50 = icmp ne i32 %49, 0
  br i1 %50, label %55, label %51

51:                                               ; preds = %47
  %52 = load ptr, ptr %6, align 8, !tbaa !80
  %53 = load i64, ptr %7, align 8, !tbaa !77
  %54 = call noundef i32 @_ZN3zmq16null_mechanism_t21process_error_commandEPKhm(ptr noundef nonnull align 8 dereferenceable(1576) %11, ptr noundef %52, i64 noundef %53)
  store i32 %54, ptr %8, align 4, !tbaa !37
  br label %65

55:                                               ; preds = %47, %44
  %56 = getelementptr inbounds i8, ptr %11, i64 80
  %57 = getelementptr inbounds nuw %"class.zmq::mechanism_base_t", ptr %56, i32 0, i32 1
  %58 = load ptr, ptr %57, align 8, !tbaa !39
  %59 = call noundef ptr @_ZNK3zmq14session_base_t10get_socketEv(ptr noundef nonnull align 8 dereferenceable(1624) %58)
  %60 = getelementptr inbounds i8, ptr %11, i64 80
  %61 = getelementptr inbounds nuw %"class.zmq::mechanism_base_t", ptr %60, i32 0, i32 1
  %62 = load ptr, ptr %61, align 8, !tbaa !39
  %63 = call noundef nonnull align 8 dereferenceable(68) ptr @_ZNK3zmq14session_base_t12get_endpointEv(ptr noundef nonnull align 8 dereferenceable(1624) %62)
  call void @_ZN3zmq13socket_base_t31event_handshake_failed_protocolERKNS_19endpoint_uri_pair_tEi(ptr noundef nonnull align 8 dereferenceable(1825) %59, ptr noundef nonnull align 8 dereferenceable(68) %63, i32 noundef 268435457)
  %64 = call ptr @__errno_location() #19
  store i32 71, ptr %64, align 4, !tbaa !37
  store i32 -1, ptr %8, align 4, !tbaa !37
  br label %65

65:                                               ; preds = %55, %51
  br label %66

66:                                               ; preds = %65, %40
  %67 = load i32, ptr %8, align 4, !tbaa !37
  %68 = icmp eq i32 %67, 0
  br i1 %68, label %69, label %114

69:                                               ; preds = %66
  %70 = load ptr, ptr %5, align 8, !tbaa !33
  %71 = call noundef i32 @_ZN3zmq5msg_t5closeEv(ptr noundef nonnull align 8 dereferenceable(64) %70)
  store i32 %71, ptr %8, align 4, !tbaa !37
  br label %72

72:                                               ; preds = %69
  %73 = load i32, ptr %8, align 4, !tbaa !37
  %74 = icmp eq i32 %73, 0
  %75 = xor i1 %74, true
  %76 = zext i1 %75 to i64
  %77 = call i64 @llvm.expect.i64(i64 %76, i64 0)
  %78 = icmp ne i64 %77, 0
  br i1 %78, label %79, label %89

79:                                               ; preds = %72
  call void @llvm.lifetime.start.p0(i64 8, ptr %9) #17
  %80 = call ptr @__errno_location() #19
  %81 = load i32, ptr %80, align 4, !tbaa !37
  %82 = call ptr @strerror(i32 noundef %81) #17
  store ptr %82, ptr %9, align 8, !tbaa !80
  %83 = load ptr, ptr @stderr, align 8, !tbaa !78
  %84 = load ptr, ptr %9, align 8, !tbaa !80
  %85 = call i32 (ptr, ptr, ...) @fprintf(ptr noundef %83, ptr noundef @.str.5, ptr noundef %84, ptr noundef @.str.4, i32 noundef 132) #17
  %86 = load ptr, ptr @stderr, align 8, !tbaa !78
  %87 = call i32 @fflush(ptr noundef %86)
  %88 = load ptr, ptr %9, align 8, !tbaa !80
  call void @_ZN3zmq9zmq_abortEPKc(ptr noundef %88)
  call void @llvm.lifetime.end.p0(i64 8, ptr %9) #17
  br label %89

89:                                               ; preds = %79, %72
  br label %90

90:                                               ; preds = %89
  br label %91

91:                                               ; preds = %90
  %92 = load ptr, ptr %5, align 8, !tbaa !33
  %93 = call noundef i32 @_ZN3zmq5msg_t4initEv(ptr noundef nonnull align 8 dereferenceable(64) %92)
  store i32 %93, ptr %8, align 4, !tbaa !37
  br label %94

94:                                               ; preds = %91
  %95 = load i32, ptr %8, align 4, !tbaa !37
  %96 = icmp eq i32 %95, 0
  %97 = xor i1 %96, true
  %98 = zext i1 %97 to i64
  %99 = call i64 @llvm.expect.i64(i64 %98, i64 0)
  %100 = icmp ne i64 %99, 0
  br i1 %100, label %101, label %111

101:                                              ; preds = %94
  call void @llvm.lifetime.start.p0(i64 8, ptr %10) #17
  %102 = call ptr @__errno_location() #19
  %103 = load i32, ptr %102, align 4, !tbaa !37
  %104 = call ptr @strerror(i32 noundef %103) #17
  store ptr %104, ptr %10, align 8, !tbaa !80
  %105 = load ptr, ptr @stderr, align 8, !tbaa !78
  %106 = load ptr, ptr %10, align 8, !tbaa !80
  %107 = call i32 (ptr, ptr, ...) @fprintf(ptr noundef %105, ptr noundef @.str.5, ptr noundef %106, ptr noundef @.str.4, i32 noundef 134) #17
  %108 = load ptr, ptr @stderr, align 8, !tbaa !78
  %109 = call i32 @fflush(ptr noundef %108)
  %110 = load ptr, ptr %10, align 8, !tbaa !80
  call void @_ZN3zmq9zmq_abortEPKc(ptr noundef %110)
  call void @llvm.lifetime.end.p0(i64 8, ptr %10) #17
  br label %111

111:                                              ; preds = %101, %94
  br label %112

112:                                              ; preds = %111
  br label %113

113:                                              ; preds = %112
  br label %114

114:                                              ; preds = %113, %66
  %115 = load i32, ptr %8, align 4, !tbaa !37
  store i32 %115, ptr %3, align 4
  call void @llvm.lifetime.end.p0(i64 4, ptr %8) #17
  call void @llvm.lifetime.end.p0(i64 8, ptr %7) #17
  call void @llvm.lifetime.end.p0(i64 8, ptr %6) #17
  br label %116

116:                                              ; preds = %114, %19
  %117 = load i32, ptr %3, align 4
  ret i32 %117
}