; Function Attrs: mustprogress uwtable
define noundef i32 @_ZN3zmq16null_mechanism_t25process_handshake_commandEPNS_5msg_tE(ptr noundef nonnull align 8 dereferenceable(1576) %0, ptr noundef %1) unnamed_addr #0 align 2 {
  %3 = getelementptr inbounds nuw i8, ptr %0, i64 74
  %4 = load i8, ptr %3, align 2, !tbaa !68, !range !18, !noundef !19
  %5 = trunc nuw i8 %4 to i1
  br i1 %5, label %10, label %6

6:                                                ; preds = %2
  %7 = getelementptr inbounds nuw i8, ptr %0, i64 75
  %8 = load i8, ptr %7, align 1, !tbaa !69, !range !18, !noundef !19
  %9 = trunc nuw i8 %8 to i1
  br i1 %9, label %10, label %17

10:                                               ; preds = %6, %2
  %11 = getelementptr inbounds nuw i8, ptr %0, i64 1568
  %12 = load ptr, ptr %11, align 8, !tbaa !25
  %13 = tail call noundef ptr @_ZNK3zmq14session_base_t10get_socketEv(ptr noundef nonnull align 8 dereferenceable(1624) %12)
  %14 = load ptr, ptr %11, align 8, !tbaa !25
  %15 = tail call noundef nonnull align 8 dereferenceable(68) ptr @_ZNK3zmq14session_base_t12get_endpointEv(ptr noundef nonnull align 8 dereferenceable(1624) %14)
  tail call void @_ZN3zmq13socket_base_t31event_handshake_failed_protocolERKNS_19endpoint_uri_pair_tEi(ptr noundef nonnull align 8 dereferenceable(1825) %13, ptr noundef nonnull align 8 dereferenceable(68) %15, i32 noundef 268435457)
  %16 = tail call ptr @__errno_location() #20
  store i32 71, ptr %16, align 4, !tbaa !21
  br label %58

17:                                               ; preds = %6
  %18 = tail call noundef ptr @_ZN3zmq5msg_t4dataEv(ptr noundef nonnull align 8 dereferenceable(64) %1)
  %19 = tail call noundef i64 @_ZNK3zmq5msg_t4sizeEv(ptr noundef nonnull align 8 dereferenceable(64) %1)
  %20 = icmp ugt i64 %19, 5
  br i1 %20, label %21, label %.thread

21:                                               ; preds = %17
  %bcmp = tail call i32 @bcmp(ptr noundef nonnull dereferenceable(6) %18, ptr noundef nonnull dereferenceable(6) @_ZL18ready_command_name, i64 6)
  %.not = icmp eq i32 %bcmp, 0
  br i1 %.not, label %22, label %27

22:                                               ; preds = %21
  store i8 1, ptr %3, align 2, !tbaa !68
  %23 = getelementptr inbounds nuw i8, ptr %0, i64 80
  %24 = getelementptr inbounds nuw i8, ptr %18, i64 6
  %25 = add i64 %19, -6
  %26 = tail call noundef i32 @_ZN3zmq11mechanism_t14parse_metadataEPKhmb(ptr noundef nonnull align 8 dereferenceable(1488) %23, ptr noundef nonnull %24, i64 noundef %25, i1 noundef zeroext false)
  br label %36

27:                                               ; preds = %21
  %bcmp24 = tail call i32 @bcmp(ptr noundef nonnull dereferenceable(6) %18, ptr noundef nonnull dereferenceable(6) @_ZL18error_command_name, i64 6)
  %.not25 = icmp eq i32 %bcmp24, 0
  br i1 %.not25, label %28, label %.thread

28:                                               ; preds = %27
  %29 = tail call noundef i32 @_ZN3zmq16null_mechanism_t21process_error_commandEPKhm(ptr noundef nonnull align 8 dereferenceable(1576) %0, ptr noundef nonnull %18, i64 noundef %19)
  br label %36

.thread:                                          ; preds = %27, %17
  %30 = getelementptr inbounds nuw i8, ptr %0, i64 1568
  %31 = load ptr, ptr %30, align 8, !tbaa !25
  %32 = tail call noundef ptr @_ZNK3zmq14session_base_t10get_socketEv(ptr noundef nonnull align 8 dereferenceable(1624) %31)
  %33 = load ptr, ptr %30, align 8, !tbaa !25
  %34 = tail call noundef nonnull align 8 dereferenceable(68) ptr @_ZNK3zmq14session_base_t12get_endpointEv(ptr noundef nonnull align 8 dereferenceable(1624) %33)
  tail call void @_ZN3zmq13socket_base_t31event_handshake_failed_protocolERKNS_19endpoint_uri_pair_tEi(ptr noundef nonnull align 8 dereferenceable(1825) %32, ptr noundef nonnull align 8 dereferenceable(68) %34, i32 noundef 268435457)
  %35 = tail call ptr @__errno_location() #20
  store i32 71, ptr %35, align 4, !tbaa !21
  br label %58

36:                                               ; preds = %28, %22
  %.021 = phi i32 [ %29, %28 ], [ %26, %22 ]
  %37 = icmp eq i32 %.021, 0
  br i1 %37, label %38, label %58

38:                                               ; preds = %36
  %39 = tail call noundef i32 @_ZN3zmq5msg_t5closeEv(ptr noundef nonnull align 8 dereferenceable(64) %1)
  %.not26 = icmp eq i32 %39, 0
  br i1 %.not26, label %48, label %40, !prof !64

40:                                               ; preds = %38
  %41 = tail call ptr @__errno_location() #20
  %42 = load i32, ptr %41, align 4, !tbaa !21
  %43 = tail call ptr @strerror(i32 noundef %42) #18
  %44 = load ptr, ptr @stderr, align 8, !tbaa !65
  %45 = tail call i32 (ptr, ptr, ...) @fprintf(ptr noundef %44, ptr noundef nonnull @.str.5, ptr noundef %43, ptr noundef nonnull @.str.4, i32 noundef 132) #21
  %46 = load ptr, ptr @stderr, align 8, !tbaa !65
  %47 = tail call i32 @fflush(ptr noundef %46)
  tail call void @_ZN3zmq9zmq_abortEPKc(ptr noundef %43)
  br label %48

48:                                               ; preds = %40, %38
  %49 = tail call noundef i32 @_ZN3zmq5msg_t4initEv(ptr noundef nonnull align 8 dereferenceable(64) %1)
  %.not27 = icmp eq i32 %49, 0
  br i1 %.not27, label %58, label %50, !prof !64

50:                                               ; preds = %48
  %51 = tail call ptr @__errno_location() #20
  %52 = load i32, ptr %51, align 4, !tbaa !21
  %53 = tail call ptr @strerror(i32 noundef %52) #18
  %54 = load ptr, ptr @stderr, align 8, !tbaa !65
  %55 = tail call i32 (ptr, ptr, ...) @fprintf(ptr noundef %54, ptr noundef nonnull @.str.5, ptr noundef %53, ptr noundef nonnull @.str.4, i32 noundef 134) #21
  %56 = load ptr, ptr @stderr, align 8, !tbaa !65
  %57 = tail call i32 @fflush(ptr noundef %56)
  tail call void @_ZN3zmq9zmq_abortEPKc(ptr noundef %53)
  br label %58

58:                                               ; preds = %.thread, %36, %50, %48, %10
  %.0 = phi i32 [ -1, %10 ], [ %49, %50 ], [ 0, %48 ], [ %.021, %36 ], [ -1, %.thread ]
  ret i32 %.0
}